target datalayout = "e-m:e-p270:32:32-p271:32:32-p272:64:64-i64:64-i128:128-f80:128-n8:16:32:64-S128"
target triple = "x86_64-pc-linux-gnu"

%struct.Ivy_Cut_t_ = type { i32, i16, i16, [6 x i32], i32 }

@.str.12 = private unnamed_addr constant [2 x i8] c"\0A\00", align 1
@.str.24 = private unnamed_addr constant [15 x i8] c"Trying cut : {\00", align 1
@.str.25 = private unnamed_addr constant [9 x i8] c" %6d(%d)\00", align 1
@.str.26 = private unnamed_addr constant [6 x i8] c" }   \00", align 1
@stdout = external global ptr, align 8

; Function Attrs: nounwind uwtable
define internal i32 @Ivy_LeafLat(i32 noundef %0) #0 {
  %2 = alloca i32, align 4
  store i32 %0, ptr %2, align 4
  %3 = load i32, ptr %2, align 4
  %4 = and i32 %3, 255
  ret i32 %4
}

; Function Attrs: nounwind uwtable
define internal i32 @Ivy_LeafId(i32 noundef %0) #0 {
  %2 = alloca i32, align 4
  store i32 %0, ptr %2, align 4
  %3 = load i32, ptr %2, align 4
  %4 = ashr i32 %3, 8
  ret i32 %4
}

; Function Attrs: nounwind uwtable
define i32 @Ivy_CutTruthPrint2(ptr noundef %0, ptr noundef %1, i32 noundef %2) #0 {
  %4 = alloca ptr, align 8
  %5 = alloca ptr, align 8
  %6 = alloca i32, align 4
  %7 = alloca i32, align 4
  store ptr %0, ptr %4, align 8
  store ptr %1, ptr %5, align 8
  store i32 %2, ptr %6, align 4
  %8 = call i32 (ptr, ...) @printf(ptr noundef @.str.24)
  store i32 0, ptr %7, align 4
  br label %9

9:                                                ; preds = %32, %3
  %10 = load i32, ptr %7, align 4
  %11 = load ptr, ptr %5, align 8
  %12 = getelementptr inbounds %struct.Ivy_Cut_t_, ptr %11, i32 0, i32 1
  %13 = load i16, ptr %12, align 4
  %14 = sext i16 %13 to i32
  %15 = icmp slt i32 %10, %14
  br i1 %15, label %16, label %35

16:                                               ; preds = %9
  %17 = load ptr, ptr %5, align 8
  %18 = getelementptr inbounds %struct.Ivy_Cut_t_, ptr %17, i32 0, i32 3
  %19 = load i32, ptr %7, align 4
  %20 = sext i32 %19 to i64
  %21 = getelementptr inbounds [6 x i32], ptr %18, i64 0, i64 %20
  %22 = load i32, ptr %21, align 4
  %23 = call i32 @Ivy_LeafId(i32 noundef %22)
  %24 = load ptr, ptr %5, align 8
  %25 = getelementptr inbounds %struct.Ivy_Cut_t_, ptr %24, i32 0, i32 3
  %26 = load i32, ptr %7, align 4
  %27 = sext i32 %26 to i64
  %28 = getelementptr inbounds [6 x i32], ptr %25, i64 0, i64 %27
  %29 = load i32, ptr %28, align 4
  %30 = call i32 @Ivy_LeafLat(i32 noundef %29)
  %31 = call i32 (ptr, ...) @printf(ptr noundef @.str.25, i32 noundef %23, i32 noundef %30)
  br label %32

32:                                               ; preds = %16
  %33 = load i32, ptr %7, align 4
  %34 = add nsw i32 %33, 1
  store i32 %34, ptr %7, align 4
  br label %9, !llvm.loop !29

35:                                               ; preds = %9
  %36 = call i32 (ptr, ...) @printf(ptr noundef @.str.26)
  %37 = load ptr, ptr @stdout, align 8
  call void @Extra_PrintBinary(ptr noundef %37, ptr noundef %6, i32 noundef 16)
  %38 = call i32 (ptr, ...) @printf(ptr noundef @.str.12)
  ret i32 0
}