; Function Attrs: nounwind uwtable
define noundef i32 @Ivy_CutTruthPrint2(ptr noundef readnone captures(none) %0, ptr noundef readonly captures(none) %1, i32 noundef %2) local_unnamed_addr #1 {
  %4 = alloca i32, align 4
  store i32 %2, ptr %4, align 4
  %5 = tail call i32 (ptr, ...) @printf(ptr noundef nonnull dereferenceable(1) @.str.24)
  %6 = getelementptr inbounds nuw i8, ptr %1, i64 4
  %7 = load i16, ptr %6, align 4
  %8 = icmp sgt i16 %7, 0
  br i1 %8, label %.lr.ph, label %._crit_edge

.lr.ph:                                           ; preds = %3
  %9 = getelementptr inbounds nuw i8, ptr %1, i64 8
  br label %10

10:                                               ; preds = %.lr.ph, %10
  %indvars.iv = phi i64 [ 0, %.lr.ph ], [ %indvars.iv.next, %10 ]
  %11 = getelementptr inbounds nuw [6 x i32], ptr %9, i64 0, i64 %indvars.iv
  %12 = load i32, ptr %11, align 4
  %13 = ashr i32 %12, 8
  %14 = and i32 %12, 255
  %15 = tail call i32 (ptr, ...) @printf(ptr noundef nonnull dereferenceable(1) @.str.25, i32 noundef %13, i32 noundef %14)
  %indvars.iv.next = add nuw nsw i64 %indvars.iv, 1
  %16 = load i16, ptr %6, align 4
  %17 = sext i16 %16 to i64
  %18 = icmp slt i64 %indvars.iv.next, %17
  br i1 %18, label %10, label %._crit_edge, !llvm.loop !28

._crit_edge:                                      ; preds = %10, %3
  %19 = tail call i32 (ptr, ...) @printf(ptr noundef nonnull dereferenceable(1) @.str.26)
  %20 = load ptr, ptr @stdout, align 8
  call void @Extra_PrintBinary(ptr noundef %20, ptr noundef nonnull %4, i32 noundef 16) #19
  %putchar = call i32 @putchar(i32 10)
  ret i32 0
}